; Function Attrs: mustprogress nounwind sspstrong willreturn uwtable
define hidden void @FLAC__bitwriter_free(ptr noundef captures(none) initializes((16, 28)) %bw) local_unnamed_addr #2 {
entry:
  %0 = load ptr, ptr %bw, align 8
  %cmp.not = icmp eq ptr %0, null
  br i1 %cmp.not, label %if.end, label %if.then

if.then:                                          ; preds = %entry
  tail call void @free(ptr noundef nonnull %0) #15
  br label %if.end

if.end:                                           ; preds = %if.then, %entry
  store ptr null, ptr %bw, align 8
  %capacity = getelementptr inbounds nuw i8, ptr %bw, i64 16
  store i32 0, ptr %capacity, align 8
  %bits = getelementptr inbounds nuw i8, ptr %bw, i64 24
  store i32 0, ptr %bits, align 8
  %words = getelementptr inbounds nuw i8, ptr %bw, i64 20
  store i32 0, ptr %words, align 4
  ret void
}